target datalayout = "e-m:e-p270:32:32-p271:32:32-p272:64:64-i64:64-i128:128-f80:128-n8:16:32:64-S128"
target triple = "x86_64-unknown-linux-gnu"

%"class.folly::Optional" = type { %"struct.folly::Optional<proxygen::HTTPMethod>::StorageTriviallyDestructible" }
%"struct.folly::Optional<proxygen::HTTPMethod>::StorageTriviallyDestructible" = type <{ %union.anon, i8, [3 x i8] }>
%union.anon = type { i32 }
%"class.folly::OptionalEmptyException" = type { %"class.std::runtime_error" }
%"class.std::runtime_error" = type { %"class.std::exception", %"struct.std::__cow_string" }
%"class.std::exception" = type { ptr }
%"struct.std::__cow_string" = type { %union.anon.20 }
%union.anon.20 = type { ptr }

@_ZTIN5folly22OptionalEmptyExceptionE = linkonce_odr constant { ptr, ptr, ptr } { ptr getelementptr inbounds (ptr, ptr @_ZTVN10__cxxabiv120__si_class_type_infoE, i64 2), ptr @_ZTSN5folly22OptionalEmptyExceptionE, ptr @_ZTISt13runtime_error }, comdat, align 8
@_ZTVN5folly22OptionalEmptyExceptionE = linkonce_odr unnamed_addr constant { [5 x ptr] } { [5 x ptr] [ptr null, ptr @_ZTIN5folly22OptionalEmptyExceptionE, ptr @_ZN5folly22OptionalEmptyExceptionD2Ev, ptr @_ZN5folly22OptionalEmptyExceptionD0Ev, ptr @_ZNKSt13runtime_error4whatEv] }, comdat, align 8
@.str.6 = private unnamed_addr constant [35 x i8] c"Empty Optional cannot be unwrapped\00", align 1

; Function Attrs: mustprogress nounwind uwtable
define linkonce_odr void @_ZN5folly22OptionalEmptyExceptionC2EOS0_(ptr noundef nonnull align 8 dereferenceable(16) %this, ptr noundef nonnull align 8 dereferenceable(16) %0) unnamed_addr #1 comdat align 2 {
entry:
  %this.addr = alloca ptr, align 8
  %.addr = alloca ptr, align 8
  store ptr %this, ptr %this.addr, align 8
  store ptr %0, ptr %.addr, align 8
  %this1 = load ptr, ptr %this.addr, align 8
  %1 = load ptr, ptr %.addr, align 8
  call void @_ZNSt13runtime_errorC2EOS_(ptr noundef nonnull align 8 dereferenceable(16) %this1, ptr noundef nonnull align 8 dereferenceable(16) %1) #17
  store ptr getelementptr inbounds ({ [5 x ptr] }, ptr @_ZTVN5folly22OptionalEmptyExceptionE, i32 0, i32 0, i32 2), ptr %this1, align 8
  ret void
}

; Function Attrs: mustprogress nounwind uwtable
define linkonce_odr void @_ZN5folly22OptionalEmptyExceptionD2Ev(ptr noundef nonnull align 8 dereferenceable(16) %this) unnamed_addr #1 comdat align 2 {
entry:
  %this.addr = alloca ptr, align 8
  store ptr %this, ptr %this.addr, align 8
  %this1 = load ptr, ptr %this.addr, align 8
  call void @_ZNSt13runtime_errorD2Ev(ptr noundef nonnull align 8 dereferenceable(16) %this1) #17
  ret void
}

; Function Attrs: cold mustprogress noreturn uwtable
define linkonce_odr void @_ZN5folly15throw_exceptionINS_22OptionalEmptyExceptionEEEvOT_(ptr noundef nonnull align 8 dereferenceable(16) %ex) #5 comdat {
entry:
  %ex.addr = alloca ptr, align 8
  store ptr %ex, ptr %ex.addr, align 8
  %exception = call ptr @__cxa_allocate_exception(i64 16) #17
  %0 = load ptr, ptr %ex.addr, align 8
  call void @_ZN5folly22OptionalEmptyExceptionC2EOS0_(ptr noundef nonnull align 8 dereferenceable(16) %exception, ptr noundef nonnull align 8 dereferenceable(16) %0) #17
  call void @__cxa_throw(ptr %exception, ptr @_ZTIN5folly22OptionalEmptyExceptionE, ptr @_ZN5folly22OptionalEmptyExceptionD2Ev) #22
  unreachable
}

; Function Attrs: mustprogress uwtable
define linkonce_odr void @_ZN5folly22OptionalEmptyExceptionC2Ev(ptr noundef nonnull align 8 dereferenceable(16) %this) unnamed_addr #0 comdat align 2 {
entry:
  %this.addr = alloca ptr, align 8
  store ptr %this, ptr %this.addr, align 8
  %this1 = load ptr, ptr %this.addr, align 8
  call void @_ZNSt13runtime_errorC2EPKc(ptr noundef nonnull align 8 dereferenceable(16) %this1, ptr noundef @.str.6)
  store ptr getelementptr inbounds ({ [5 x ptr] }, ptr @_ZTVN5folly22OptionalEmptyExceptionE, i32 0, i32 0, i32 2), ptr %this1, align 8
  ret void
}

; Function Attrs: cold mustprogress noreturn uwtable
define linkonce_odr void @_ZN5folly6detail16throw_exception_INS_22OptionalEmptyExceptionEJEEEvDpT0_() #5 comdat personality ptr @__gxx_personality_v0 {
entry:
  %ref.tmp = alloca %"class.folly::OptionalEmptyException", align 8
  %exn.slot = alloca ptr, align 8
  %ehselector.slot = alloca i32, align 4
  call void @_ZN5folly22OptionalEmptyExceptionC2Ev(ptr noundef nonnull align 8 dereferenceable(16) %ref.tmp)
  invoke void @_ZN5folly15throw_exceptionINS_22OptionalEmptyExceptionEEEvOT_(ptr noundef nonnull align 8 dereferenceable(16) %ref.tmp) #24
          to label %invoke.cont unwind label %lpad

invoke.cont:                                      ; preds = %entry
  unreachable

lpad:                                             ; preds = %entry
  %0 = landingpad { ptr, i32 }
          cleanup
  %1 = extractvalue { ptr, i32 } %0, 0
  store ptr %1, ptr %exn.slot, align 8
  %2 = extractvalue { ptr, i32 } %0, 1
  store i32 %2, ptr %ehselector.slot, align 4
  call void @_ZN5folly22OptionalEmptyExceptionD2Ev(ptr noundef nonnull align 8 dereferenceable(16) %ref.tmp) #17
  br label %eh.resume

eh.resume:                                        ; preds = %lpad
  %exn = load ptr, ptr %exn.slot, align 8
  %sel = load i32, ptr %ehselector.slot, align 4
  %lpad.val = insertvalue { ptr, i32 } poison, ptr %exn, 0
  %lpad.val1 = insertvalue { ptr, i32 } %lpad.val, i32 %sel, 1
  resume { ptr, i32 } %lpad.val1
}

; Function Attrs: mustprogress uwtable
define linkonce_odr void @_ZNK5folly8OptionalIN8proxygen10HTTPMethodEE13require_valueEv(ptr noundef nonnull align 4 dereferenceable(8) %this) #0 comdat align 2 {
entry:
  %this.addr = alloca ptr, align 8
  store ptr %this, ptr %this.addr, align 8
  %this1 = load ptr, ptr %this.addr, align 8
  %storage_ = getelementptr inbounds %"class.folly::Optional", ptr %this1, i32 0, i32 0
  %hasValue = getelementptr inbounds %"struct.folly::Optional<proxygen::HTTPMethod>::StorageTriviallyDestructible", ptr %storage_, i32 0, i32 1
  %0 = load i8, ptr %hasValue, align 4
  %tobool = trunc i8 %0 to i1
  br i1 %tobool, label %if.end, label %if.then

if.then:                                          ; preds = %entry
  call void @_ZN5folly6detail16throw_exception_INS_22OptionalEmptyExceptionEJEEEvDpT0_() #24
  unreachable

_ZN5folly15throw_exceptionINS_22OptionalEmptyExceptionEJEEEvDpOT0_.exit: ; No predecessors!
  unreachable

if.end:                                           ; preds = %entry
  ret void
}

; Function Attrs: mustprogress nounwind uwtable
define linkonce_odr noundef zeroext i1 @_ZNK5folly8OptionalIN8proxygen10HTTPMethodEE9has_valueEv(ptr noundef nonnull align 4 dereferenceable(8) %this) #1 comdat align 2 {
entry:
  %this.addr = alloca ptr, align 8
  store ptr %this, ptr %this.addr, align 8
  %this1 = load ptr, ptr %this.addr, align 8
  %storage_ = getelementptr inbounds %"class.folly::Optional", ptr %this1, i32 0, i32 0
  %hasValue = getelementptr inbounds %"struct.folly::Optional<proxygen::HTTPMethod>::StorageTriviallyDestructible", ptr %storage_, i32 0, i32 1
  %0 = load i8, ptr %hasValue, align 4
  %tobool = trunc i8 %0 to i1
  ret i1 %tobool
}

; Function Attrs: mustprogress uwtable
define linkonce_odr noundef nonnull align 4 dereferenceable(4) ptr @_ZNKR5folly8OptionalIN8proxygen10HTTPMethodEE5valueEv(ptr noundef nonnull align 4 dereferenceable(8) %this) #0 comdat align 2 {
entry:
  %this.addr = alloca ptr, align 8
  store ptr %this, ptr %this.addr, align 8
  %this1 = load ptr, ptr %this.addr, align 8
  call void @_ZNK5folly8OptionalIN8proxygen10HTTPMethodEE13require_valueEv(ptr noundef nonnull align 4 dereferenceable(8) %this1)
  %storage_ = getelementptr inbounds %"class.folly::Optional", ptr %this1, i32 0, i32 0
  %0 = getelementptr inbounds %"struct.folly::Optional<proxygen::HTTPMethod>::StorageTriviallyDestructible", ptr %storage_, i32 0, i32 0
  ret ptr %0
}

; Function Attrs: mustprogress nounwind uwtable
define linkonce_odr noundef zeroext i1 @_ZNK5folly8OptionalIN8proxygen10HTTPMethodEE8hasValueEv(ptr noundef nonnull align 4 dereferenceable(8) %this) #1 comdat align 2 {
entry:
  %this.addr = alloca ptr, align 8
  store ptr %this, ptr %this.addr, align 8
  %this1 = load ptr, ptr %this.addr, align 8
  %call = call noundef zeroext i1 @_ZNK5folly8OptionalIN8proxygen10HTTPMethodEE9has_valueEv(ptr noundef nonnull align 4 dereferenceable(8) %this1) #17
  ret i1 %call
}

; Function Attrs: mustprogress uwtable
define linkonce_odr noundef zeroext i1 @_ZN5follyeqIN8proxygen10HTTPMethodES2_EEbRKNS_8OptionalIT_EERKT0_(ptr noundef nonnull align 4 dereferenceable(8) %a, ptr noundef nonnull align 4 dereferenceable(4) %b) #0 comdat {
entry:
  %a.addr = alloca ptr, align 8
  %b.addr = alloca ptr, align 8
  store ptr %a, ptr %a.addr, align 8
  store ptr %b, ptr %b.addr, align 8
  %0 = load ptr, ptr %a.addr, align 8
  %call = call noundef zeroext i1 @_ZNK5folly8OptionalIN8proxygen10HTTPMethodEE8hasValueEv(ptr noundef nonnull align 4 dereferenceable(8) %0) #17
  br i1 %call, label %land.rhs, label %land.end

land.rhs:                                         ; preds = %entry
  %1 = load ptr, ptr %a.addr, align 8
  %call1 = call noundef nonnull align 4 dereferenceable(4) ptr @_ZNKR5folly8OptionalIN8proxygen10HTTPMethodEE5valueEv(ptr noundef nonnull align 4 dereferenceable(8) %1)
  %2 = load i32, ptr %call1, align 4
  %3 = load ptr, ptr %b.addr, align 8
  %4 = load i32, ptr %3, align 4
  %cmp = icmp eq i32 %2, %4
  br label %land.end

land.end:                                         ; preds = %land.rhs, %entry
  %5 = phi i1 [ false, %entry ], [ %cmp, %land.rhs ]
  ret i1 %5
}

; Function Attrs: mustprogress uwtable
define noundef i32 @_ZN8proxygen7RFC261620isRequestBodyAllowedEN5folly8OptionalINS_10HTTPMethodEEE(ptr noundef %method) #0 {
entry:
  %retval = alloca i32, align 4
  %method.indirect_addr = alloca ptr, align 8
  %ref.tmp = alloca i32, align 4
  %ref.tmp1 = alloca i32, align 4
  %ref.tmp3 = alloca i32, align 4
  %ref.tmp5 = alloca i32, align 4
  store ptr %method, ptr %method.indirect_addr, align 8
  store i32 8, ptr %ref.tmp, align 4
  %call = call noundef zeroext i1 @_ZN5follyeqIN8proxygen10HTTPMethodES2_EEbRKNS_8OptionalIT_EERKT0_(ptr noundef nonnull align 4 dereferenceable(8) %method, ptr noundef nonnull align 4 dereferenceable(4) %ref.tmp)
  br i1 %call, label %if.then, label %if.end

if.then:                                          ; preds = %entry
  store i32 2, ptr %retval, align 4
  br label %return

if.end:                                           ; preds = %entry
  store i32 2, ptr %ref.tmp1, align 4
  %call2 = call noundef zeroext i1 @_ZN5follyeqIN8proxygen10HTTPMethodES2_EEbRKNS_8OptionalIT_EERKT0_(ptr noundef nonnull align 4 dereferenceable(8) %method, ptr noundef nonnull align 4 dereferenceable(4) %ref.tmp1)
  br i1 %call2, label %lor.end, label %lor.lhs.false

lor.lhs.false:                                    ; preds = %if.end
  store i32 1, ptr %ref.tmp3, align 4
  %call4 = call noundef zeroext i1 @_ZN5follyeqIN8proxygen10HTTPMethodES2_EEbRKNS_8OptionalIT_EERKT0_(ptr noundef nonnull align 4 dereferenceable(8) %method, ptr noundef nonnull align 4 dereferenceable(4) %ref.tmp3)
  br i1 %call4, label %lor.end, label %lor.rhs

lor.rhs:                                          ; preds = %lor.lhs.false
  store i32 7, ptr %ref.tmp5, align 4
  %call6 = call noundef zeroext i1 @_ZN5follyeqIN8proxygen10HTTPMethodES2_EEbRKNS_8OptionalIT_EERKT0_(ptr noundef nonnull align 4 dereferenceable(8) %method, ptr noundef nonnull align 4 dereferenceable(4) %ref.tmp5)
  br label %lor.end

lor.end:                                          ; preds = %lor.rhs, %lor.lhs.false, %if.end
  %0 = phi i1 [ true, %lor.lhs.false ], [ true, %if.end ], [ %call6, %lor.rhs ]
  br i1 %0, label %if.then7, label %if.end8

if.then7:                                         ; preds = %lor.end
  store i32 0, ptr %retval, align 4
  br label %return

if.end8:                                          ; preds = %lor.end
  store i32 1, ptr %retval, align 4
  br label %return

return:                                           ; preds = %if.end8, %if.then7, %if.then
  %1 = load i32, ptr %retval, align 4
  ret i32 %1
}