; Function Attrs: mustprogress nofree norecurse nosync nounwind willreturn memory(argmem: read) uwtable
define noundef i32 @_ZN8proxygen7RFC261620isRequestBodyAllowedEN5folly8OptionalINS_10HTTPMethodEEE(ptr nocapture noundef readonly %method) local_unnamed_addr #0 {
entry:
  %hasValue.i.i.i = getelementptr inbounds i8, ptr %method, i64 4
  %0 = load i8, ptr %hasValue.i.i.i, align 4
  %1 = and i8 %0, 1
  %tobool.i.i.i = icmp ne i8 %1, 0
  %2 = load i32, ptr %method, align 4
  %cmp.i = icmp eq i32 %2, 8
  %3 = select i1 %tobool.i.i.i, i1 %cmp.i, i1 false
  br i1 %3, label %return, label %if.end

if.end:                                           ; preds = %entry
  %4 = add i32 %2, -1
  %5 = icmp ult i32 %4, 2
  %or.cond = select i1 %tobool.i.i.i, i1 %5, i1 false
  br i1 %or.cond, label %return, label %lor.rhs

lor.rhs:                                          ; preds = %if.end
  %cmp.i9 = icmp ne i32 %2, 7
  %not.tobool.i.i.i = xor i1 %tobool.i.i.i, true
  %6 = select i1 %not.tobool.i.i.i, i1 true, i1 %cmp.i9
  %spec.select = zext i1 %6 to i32
  br label %return

return:                                           ; preds = %lor.rhs, %if.end, %entry
  %retval.0 = phi i32 [ 2, %entry ], [ 0, %if.end ], [ %spec.select, %lor.rhs ]
  ret i32 %retval.0
}